	.text
	.file	"/home/erelsgl/Dropbox/ariel/cpp-5779/xtra-material/1.6-inline/square_inline.cpp"
	.globl	main                    # -- Begin function main
	.p2align	4, 0x90
	.type	main,@function
main:                                   # @main
	.cfi_startproc
# BB#0:
	pushq	%r14
.Lcfi0:
	.cfi_def_cfa_offset 16
	pushq	%rbx
.Lcfi1:
	.cfi_def_cfa_offset 24
	pushq	%rax
.Lcfi2:
	.cfi_def_cfa_offset 32
.Lcfi3:
	.cfi_offset %rbx, -24
.Lcfi4:
	.cfi_offset %r14, -16
	movl	$_ZSt4cout, %edi
	movl	$35, %esi
	callq	_ZNSolsEi
	movq	%rax, %r14
	movq	(%r14), %rax
	movq	-24(%rax), %rax
	movq	240(%r14,%rax), %rbx
	testq	%rbx, %rbx
	je	.LBB0_9
# BB#1:
	cmpb	$0, 56(%rbx)
	je	.LBB0_3
# BB#2:
	movb	67(%rbx), %al
	jmp	.LBB0_4
.LBB0_3:
	movq	%rbx, %rdi
	callq	_ZNKSt5ctypeIcE13_M_widen_initEv
	movq	(%rbx), %rax
	movl	$10, %esi
	movq	%rbx, %rdi
	callq	*48(%rax)
.LBB0_4:
	movsbl	%al, %esi
	movq	%r14, %rdi
	callq	_ZNSo3putEc
	movq	%rax, %rdi
	callq	_ZNSo5flushEv
	movl	$_ZSt4cout, %edi
	movl	$100, %esi
	callq	_ZNSolsEi
	movq	%rax, %r14
	movq	(%r14), %rax
	movq	-24(%rax), %rax
	movq	240(%r14,%rax), %rbx
	testq	%rbx, %rbx
	je	.LBB0_9
# BB#5:
	cmpb	$0, 56(%rbx)
	je	.LBB0_7
# BB#6:
	movb	67(%rbx), %al
	jmp	.LBB0_8
.LBB0_7:
	movq	%rbx, %rdi
	callq	_ZNKSt5ctypeIcE13_M_widen_initEv
	movq	(%rbx), %rax
	movl	$10, %esi
	movq	%rbx, %rdi
	callq	*48(%rax)
.LBB0_8:
	movsbl	%al, %esi
	movq	%r14, %rdi
	callq	_ZNSo3putEc
	movq	%rax, %rdi
	callq	_ZNSo5flushEv
	xorl	%eax, %eax
	addq	$8, %rsp
	popq	%rbx
	popq	%r14
	retq
.LBB0_9:
	callq	_ZSt16__throw_bad_castv
.Lfunc_end0:
	.size	main, .Lfunc_end0-main
	.cfi_endproc
                                        # -- End function
	.section	.text.startup,"ax",@progbits
	.p2align	4, 0x90         # -- Begin function _GLOBAL__sub_I_square_inline.cpp
	.type	_GLOBAL__sub_I_square_inline.cpp,@function
_GLOBAL__sub_I_square_inline.cpp:       # @_GLOBAL__sub_I_square_inline.cpp
	.cfi_startproc
# BB#0:
	pushq	%rax
.Lcfi5:
	.cfi_def_cfa_offset 16
	movl	$_ZStL8__ioinit, %edi
	callq	_ZNSt8ios_base4InitC1Ev
	movl	$_ZNSt8ios_base4InitD1Ev, %edi
	movl	$_ZStL8__ioinit, %esi
	movl	$__dso_handle, %edx
	popq	%rax
	jmp	__cxa_atexit            # TAILCALL
.Lfunc_end1:
	.size	_GLOBAL__sub_I_square_inline.cpp, .Lfunc_end1-_GLOBAL__sub_I_square_inline.cpp
	.cfi_endproc
                                        # -- End function
	.type	_ZStL8__ioinit,@object  # @_ZStL8__ioinit
	.local	_ZStL8__ioinit
	.comm	_ZStL8__ioinit,1,1
	.hidden	__dso_handle
	.section	.init_array,"aw",@init_array
	.p2align	3
	.quad	_GLOBAL__sub_I_square_inline.cpp

	.ident	"clang version 5.0.2-svn328729-1~exp1~20180509124008.99 (branches/release_50)"
	.section	".note.GNU-stack","",@progbits
